; Function Attrs: mustprogress nounwind uwtable
define dso_local void @_ZN4node7TCPWrap5Bind6ERKN2v820FunctionCallbackInfoINS1_5ValueEEE(ptr noundef nonnull align 8 dereferenceable(20) %args) #3 align 2 {
entry:
  %agg.tmp = alloca %"class.std::function.297", align 8
  %_M_manager.i.i = getelementptr inbounds i8, ptr %agg.tmp, i64 16
  %_M_invoker.i = getelementptr inbounds i8, ptr %agg.tmp, i64 24
  %0 = getelementptr inbounds i8, ptr %agg.tmp, i64 8
  store i64 0, ptr %0, align 8
  store ptr @uv_ip6_addr, ptr %agg.tmp, align 8
  store ptr @_ZNSt17_Function_handlerIFiPKciP12sockaddr_in6EPS4_E9_M_invokeERKSt9_Any_dataOS1_OiOS3_, ptr %_M_invoker.i, align 8
  store ptr @_ZNSt17_Function_handlerIFiPKciP12sockaddr_in6EPS4_E10_M_managerERSt9_Any_dataRKS7_St18_Manager_operation, ptr %_M_manager.i.i, align 8
  call void @_ZN4node7TCPWrap4BindI12sockaddr_in6EEvRKN2v820FunctionCallbackInfoINS3_5ValueEEEiSt8functionIFiPKciPT_EE(ptr noundef nonnull align 8 dereferenceable(20) %args, i32 noundef 10, ptr noundef nonnull %agg.tmp)
  %1 = load ptr, ptr %_M_manager.i.i, align 8
  %tobool.not.i.i = icmp eq ptr %1, null
  br i1 %tobool.not.i.i, label %_ZNSt8functionIFiPKciP12sockaddr_in6EED2Ev.exit, label %if.then.i.i

if.then.i.i:                                      ; preds = %entry
  %call.i.i = call noundef zeroext i1 %1(ptr noundef nonnull align 8 dereferenceable(16) %agg.tmp, ptr noundef nonnull align 8 dereferenceable(16) %agg.tmp, i32 noundef 3) #17
  br label %_ZNSt8functionIFiPKciP12sockaddr_in6EED2Ev.exit

_ZNSt8functionIFiPKciP12sockaddr_in6EED2Ev.exit:  ; preds = %entry, %if.then.i.i
  ret void
}